; Function Attrs: mustprogress nofree norecurse nosync nounwind willreturn memory(argmem: write) uwtable
define dso_local void @_ZN5ImGui10SetScrollXEP11ImGuiWindowf(ptr noundef writeonly captures(none) initializes((168, 172), (176, 180), (184, 188)) %0, float noundef %1) local_unnamed_addr #10 {
  %3 = getelementptr inbounds nuw i8, ptr %0, i64 168
  store float %1, ptr %3, align 8, !tbaa !965
  %4 = getelementptr inbounds nuw i8, ptr %0, i64 176
  store float 0.000000e+00, ptr %4, align 8, !tbaa !966
  %5 = getelementptr inbounds nuw i8, ptr %0, i64 184
  store float 0.000000e+00, ptr %5, align 8, !tbaa !967
  ret void
}